target datalayout = "e-m:e-p270:32:32-p271:32:32-p272:64:64-i64:64-i128:128-f80:128-n8:16:32:64-S128"
target triple = "x86_64-pc-linux-gnu"

%struct.CRYPTO_REF_COUNT = type { i32 }
%struct.crypto_ex_data_st = type { ptr, ptr }
%struct.evp_pkey_st = type { i32, i32, ptr, ptr, ptr, %union.legacy_pkey_st, %union.legacy_pkey_st, %struct.CRYPTO_REF_COUNT, ptr, ptr, i32, i8, %struct.crypto_ex_data_st, ptr, ptr, i64, ptr, i64, %struct.anon }
%union.legacy_pkey_st = type { ptr }
%struct.anon = type { i32, i32, i32 }

; Function Attrs: nounwind uwtable
define internal i32 @dh_pkey_copy(ptr noundef %0, ptr noundef %1) #0 {
  %3 = alloca i32, align 4
  %4 = alloca ptr, align 8
  %5 = alloca ptr, align 8
  %6 = alloca ptr, align 8
  %7 = alloca ptr, align 8
  %8 = alloca i32, align 4
  %9 = alloca i32, align 4
  store ptr %0, ptr %4, align 8, !tbaa !32
  store ptr %1, ptr %5, align 8, !tbaa !32
  call void @llvm.lifetime.start.p0(i64 8, ptr %6) #4
  %10 = load ptr, ptr %5, align 8, !tbaa !32
  %11 = getelementptr inbounds nuw %struct.evp_pkey_st, ptr %10, i32 0, i32 5
  %12 = load ptr, ptr %11, align 8, !tbaa !53
  store ptr %12, ptr %6, align 8, !tbaa !3
  call void @llvm.lifetime.start.p0(i64 8, ptr %7) #4
  store ptr null, ptr %7, align 8, !tbaa !3
  call void @llvm.lifetime.start.p0(i64 4, ptr %8) #4
  %13 = load ptr, ptr %6, align 8, !tbaa !3
  %14 = icmp ne ptr %13, null
  br i1 %14, label %15, label %22

15:                                               ; preds = %2
  %16 = load ptr, ptr %6, align 8, !tbaa !3
  %17 = call ptr @ossl_dh_dup(ptr noundef %16, i32 noundef 135)
  store ptr %17, ptr %7, align 8, !tbaa !3
  %18 = load ptr, ptr %7, align 8, !tbaa !3
  %19 = icmp eq ptr %18, null
  br i1 %19, label %20, label %21

20:                                               ; preds = %15
  store i32 0, ptr %3, align 4
  store i32 1, ptr %9, align 4
  br label %35

21:                                               ; preds = %15
  br label %22

22:                                               ; preds = %21, %2
  %23 = load ptr, ptr %4, align 8, !tbaa !32
  %24 = load ptr, ptr %5, align 8, !tbaa !32
  %25 = getelementptr inbounds nuw %struct.evp_pkey_st, ptr %24, i32 0, i32 0
  %26 = load i32, ptr %25, align 8, !tbaa !63
  %27 = load ptr, ptr %7, align 8, !tbaa !3
  %28 = call i32 @EVP_PKEY_assign(ptr noundef %23, i32 noundef %26, ptr noundef %27)
  store i32 %28, ptr %8, align 4, !tbaa !8
  %29 = load i32, ptr %8, align 4, !tbaa !8
  %30 = icmp ne i32 %29, 0
  br i1 %30, label %33, label %31

31:                                               ; preds = %22
  %32 = load ptr, ptr %7, align 8, !tbaa !3
  call void @DH_free(ptr noundef %32)
  br label %33

33:                                               ; preds = %31, %22
  %34 = load i32, ptr %8, align 4, !tbaa !8
  store i32 %34, ptr %3, align 4
  store i32 1, ptr %9, align 4
  br label %35

35:                                               ; preds = %33, %20
  call void @llvm.lifetime.end.p0(i64 4, ptr %8) #4
  call void @llvm.lifetime.end.p0(i64 8, ptr %7) #4
  call void @llvm.lifetime.end.p0(i64 8, ptr %6) #4
  %36 = load i32, ptr %3, align 4
  ret i32 %36
}