; Function Attrs: nounwind uwtable
define internal i32 @dh_pkey_copy(ptr noundef %0, ptr noundef readonly captures(none) %1) #0 {
  %3 = getelementptr inbounds nuw i8, ptr %1, i64 32
  %4 = load ptr, ptr %3, align 8, !tbaa !42
  %.not = icmp eq ptr %4, null
  br i1 %.not, label %8, label %5

5:                                                ; preds = %2
  %6 = tail call ptr @ossl_dh_dup(ptr noundef nonnull %4, i32 noundef 135) #5
  %7 = icmp eq ptr %6, null
  br i1 %7, label %12, label %8

8:                                                ; preds = %5, %2
  %.010 = phi ptr [ %6, %5 ], [ null, %2 ]
  %9 = load i32, ptr %1, align 8, !tbaa !45
  %10 = tail call i32 @EVP_PKEY_assign(ptr noundef %0, i32 noundef %9, ptr noundef %.010) #5
  %.not13 = icmp eq i32 %10, 0
  br i1 %.not13, label %11, label %12

11:                                               ; preds = %8
  tail call void @DH_free(ptr noundef %.010) #5
  br label %12

12:                                               ; preds = %8, %11, %5
  %.0 = phi i32 [ 0, %5 ], [ 0, %11 ], [ %10, %8 ]
  ret i32 %.0
}